target datalayout = "e-m:e-p270:32:32-p271:32:32-p272:64:64-i64:64-i128:128-f80:128-n8:16:32:64-S128"
target triple = "x86_64-pc-linux-gnu"

%struct.SDL_HIDAPI_Device = type { ptr, ptr, ptr, ptr, i16, i16, i16, ptr, %struct.SDL_GUID, i32, i32, i32, i32, i16, i16, i8, i32, i32, i32, ptr, ptr, ptr, ptr, %struct.SDL_AtomicInt, i32, ptr, i8, i8, i8, ptr, i32, ptr, ptr }
%struct.SDL_GUID = type { [16 x i8] }
%struct.SDL_AtomicInt = type { i32 }
%struct.SDL_HIDAPI_DeviceDriver = type { ptr, i8, ptr, ptr, ptr, ptr, ptr, ptr, ptr, ptr, ptr, ptr, ptr, ptr, ptr, ptr, ptr, ptr, ptr }

; Function Attrs: nounwind uwtable
define internal zeroext i1 @HIDAPI_DriverCombined_RumbleJoystick(ptr noundef %0, ptr noundef %1, i16 noundef zeroext %2, i16 noundef zeroext %3) #0 {
  %5 = alloca ptr, align 8
  %6 = alloca ptr, align 8
  %7 = alloca i16, align 2
  %8 = alloca i16, align 2
  %9 = alloca i32, align 4
  %10 = alloca i8, align 1
  %11 = alloca ptr, align 8
  store ptr %0, ptr %5, align 8
  store ptr %1, ptr %6, align 8
  store i16 %2, ptr %7, align 2
  store i16 %3, ptr %8, align 2
  call void @llvm.lifetime.start.p0(i64 4, ptr %9) #4
  call void @llvm.lifetime.start.p0(i64 1, ptr %10) #4
  store i8 0, ptr %10, align 1
  store i32 0, ptr %9, align 4
  br label %12

12:                                               ; preds = %38, %4
  %13 = load i32, ptr %9, align 4
  %14 = load ptr, ptr %5, align 8
  %15 = getelementptr inbounds nuw %struct.SDL_HIDAPI_Device, ptr %14, i32 0, i32 30
  %16 = load i32, ptr %15, align 8
  %17 = icmp slt i32 %13, %16
  br i1 %17, label %18, label %41

18:                                               ; preds = %12
  call void @llvm.lifetime.start.p0(i64 8, ptr %11) #4
  %19 = load ptr, ptr %5, align 8
  %20 = getelementptr inbounds nuw %struct.SDL_HIDAPI_Device, ptr %19, i32 0, i32 31
  %21 = load ptr, ptr %20, align 8
  %22 = load i32, ptr %9, align 4
  %23 = sext i32 %22 to i64
  %24 = getelementptr inbounds ptr, ptr %21, i64 %23
  %25 = load ptr, ptr %24, align 8
  store ptr %25, ptr %11, align 8
  %26 = load ptr, ptr %11, align 8
  %27 = getelementptr inbounds nuw %struct.SDL_HIDAPI_Device, ptr %26, i32 0, i32 19
  %28 = load ptr, ptr %27, align 8
  %29 = getelementptr inbounds nuw %struct.SDL_HIDAPI_DeviceDriver, ptr %28, i32 0, i32 11
  %30 = load ptr, ptr %29, align 8
  %31 = load ptr, ptr %11, align 8
  %32 = load ptr, ptr %6, align 8
  %33 = load i16, ptr %7, align 2
  %34 = load i16, ptr %8, align 2
  %35 = call zeroext i1 %30(ptr noundef %31, ptr noundef %32, i16 noundef zeroext %33, i16 noundef zeroext %34)
  br i1 %35, label %36, label %37

36:                                               ; preds = %18
  store i8 1, ptr %10, align 1
  br label %37

37:                                               ; preds = %36, %18
  call void @llvm.lifetime.end.p0(i64 8, ptr %11) #4
  br label %38

38:                                               ; preds = %37
  %39 = load i32, ptr %9, align 4
  %40 = add nsw i32 %39, 1
  store i32 %40, ptr %9, align 4
  br label %12, !llvm.loop !7

41:                                               ; preds = %12
  %42 = load i8, ptr %10, align 1, !range !8, !noundef !9
  %43 = trunc i8 %42 to i1
  call void @llvm.lifetime.end.p0(i64 1, ptr %10) #4
  call void @llvm.lifetime.end.p0(i64 4, ptr %9) #4
  ret i1 %43
}