; Function Attrs: nounwind uwtable
define internal zeroext i1 @HIDAPI_DriverCombined_RumbleJoystick(ptr noundef readonly captures(none) %0, ptr noundef %1, i16 noundef zeroext %2, i16 noundef zeroext %3) #1 {
  %5 = getelementptr inbounds nuw i8, ptr %0, i64 168
  %6 = load i32, ptr %5, align 8
  %7 = icmp sgt i32 %6, 0
  br i1 %7, label %.lr.ph, label %._crit_edge

.lr.ph:                                           ; preds = %4
  %8 = getelementptr inbounds nuw i8, ptr %0, i64 176
  br label %9

9:                                                ; preds = %.lr.ph, %9
  %indvars.iv = phi i64 [ 0, %.lr.ph ], [ %indvars.iv.next, %9 ]
  %.01011 = phi i1 [ false, %.lr.ph ], [ %spec.select, %9 ]
  %10 = load ptr, ptr %8, align 8
  %11 = getelementptr inbounds nuw ptr, ptr %10, i64 %indvars.iv
  %12 = load ptr, ptr %11, align 8
  %13 = getelementptr inbounds nuw i8, ptr %12, i64 104
  %14 = load ptr, ptr %13, align 8
  %15 = getelementptr inbounds nuw i8, ptr %14, i64 88
  %16 = load ptr, ptr %15, align 8
  %17 = tail call zeroext i1 %16(ptr noundef %12, ptr noundef %1, i16 noundef zeroext %2, i16 noundef zeroext %3) #4
  %spec.select = select i1 %17, i1 true, i1 %.01011
  %indvars.iv.next = add nuw nsw i64 %indvars.iv, 1
  %18 = load i32, ptr %5, align 8
  %19 = sext i32 %18 to i64
  %20 = icmp slt i64 %indvars.iv.next, %19
  br i1 %20, label %9, label %._crit_edge, !llvm.loop !6

._crit_edge:                                      ; preds = %9, %4
  %.010.lcssa = phi i1 [ false, %4 ], [ %spec.select, %9 ]
  ret i1 %.010.lcssa
}